target datalayout = "e-m:e-p270:32:32-p271:32:32-p272:64:64-i64:64-i128:128-f80:128-n8:16:32:64-S128"
target triple = "x86_64-pc-linux-gnu"

@.str = private unnamed_addr constant [34 x i8] c"../openssl/test/fake_cipherprov.c\00", align 1
@.str.9 = private unnamed_addr constant [7 x i8] c"keylen\00", align 1
@__func__.fake_get_params = private unnamed_addr constant [16 x i8] c"fake_get_params\00", align 1
@.str.10 = private unnamed_addr constant [10 x i8] c"blocksize\00", align 1

; Function Attrs: nounwind uwtable
define internal i32 @fake_get_params(ptr noundef %0) #0 {
  %2 = alloca i32, align 4
  %3 = alloca ptr, align 8
  %4 = alloca ptr, align 8
  %5 = alloca i32, align 4
  store ptr %0, ptr %3, align 8, !tbaa !33
  call void @llvm.lifetime.start.p0(i64 8, ptr %4) #6
  %6 = load ptr, ptr %3, align 8, !tbaa !33
  %7 = call ptr @OSSL_PARAM_locate(ptr noundef %6, ptr noundef @.str.9)
  store ptr %7, ptr %4, align 8, !tbaa !33
  %8 = load ptr, ptr %4, align 8, !tbaa !33
  %9 = icmp ne ptr %8, null
  br i1 %9, label %10, label %15

10:                                               ; preds = %1
  %11 = load ptr, ptr %4, align 8, !tbaa !33
  %12 = call i32 @OSSL_PARAM_set_size_t(ptr noundef %11, i64 noundef 1)
  %13 = icmp ne i32 %12, 0
  br i1 %13, label %15, label %14

14:                                               ; preds = %10
  call void @ERR_new()
  call void @ERR_set_debug(ptr noundef @.str, i32 noundef 197, ptr noundef @__func__.fake_get_params)
  call void (i32, i32, ptr, ...) @ERR_set_error(i32 noundef 57, i32 noundef 104, ptr noundef null)
  store i32 0, ptr %2, align 4
  store i32 1, ptr %5, align 4
  br label %26

15:                                               ; preds = %10, %1
  %16 = load ptr, ptr %3, align 8, !tbaa !33
  %17 = call ptr @OSSL_PARAM_locate(ptr noundef %16, ptr noundef @.str.10)
  store ptr %17, ptr %4, align 8, !tbaa !33
  %18 = load ptr, ptr %4, align 8, !tbaa !33
  %19 = icmp ne ptr %18, null
  br i1 %19, label %20, label %25

20:                                               ; preds = %15
  %21 = load ptr, ptr %4, align 8, !tbaa !33
  %22 = call i32 @OSSL_PARAM_set_size_t(ptr noundef %21, i64 noundef 1)
  %23 = icmp ne i32 %22, 0
  br i1 %23, label %25, label %24

24:                                               ; preds = %20
  call void @ERR_new()
  call void @ERR_set_debug(ptr noundef @.str, i32 noundef 202, ptr noundef @__func__.fake_get_params)
  call void (i32, i32, ptr, ...) @ERR_set_error(i32 noundef 57, i32 noundef 104, ptr noundef null)
  store i32 0, ptr %2, align 4
  store i32 1, ptr %5, align 4
  br label %26

25:                                               ; preds = %20, %15
  store i32 1, ptr %2, align 4
  store i32 1, ptr %5, align 4
  br label %26

26:                                               ; preds = %25, %24, %14
  call void @llvm.lifetime.end.p0(i64 8, ptr %4) #6
  %27 = load i32, ptr %2, align 4
  ret i32 %27
}