; Function Attrs: nounwind uwtable
define internal range(i32 0, 2) i32 @fake_get_params(ptr noundef %0) #0 {
  %2 = tail call ptr @OSSL_PARAM_locate(ptr noundef %0, ptr noundef nonnull @.str.9) #11
  %.not = icmp eq ptr %2, null
  br i1 %.not, label %5, label %3

3:                                                ; preds = %1
  %4 = tail call i32 @OSSL_PARAM_set_size_t(ptr noundef nonnull %2, i64 noundef 1) #11
  %.not8 = icmp eq i32 %4, 0
  br i1 %.not8, label %.sink.split, label %5

5:                                                ; preds = %3, %1
  %6 = tail call ptr @OSSL_PARAM_locate(ptr noundef %0, ptr noundef nonnull @.str.10) #11
  %.not9 = icmp eq ptr %6, null
  br i1 %.not9, label %9, label %7

7:                                                ; preds = %5
  %8 = tail call i32 @OSSL_PARAM_set_size_t(ptr noundef nonnull %6, i64 noundef 1) #11
  %.not10 = icmp eq i32 %8, 0
  br i1 %.not10, label %.sink.split, label %9

.sink.split:                                      ; preds = %7, %3
  %.sink = phi i32 [ 197, %3 ], [ 202, %7 ]
  tail call void @ERR_new() #11
  tail call void @ERR_set_debug(ptr noundef nonnull @.str, i32 noundef %.sink, ptr noundef nonnull @__func__.fake_get_params) #11
  tail call void (i32, i32, ptr, ...) @ERR_set_error(i32 noundef 57, i32 noundef 104, ptr noundef null) #11
  br label %9

9:                                                ; preds = %.sink.split, %5, %7
  %.0 = phi i32 [ 1, %7 ], [ 1, %5 ], [ 0, %.sink.split ]
  ret i32 %.0
}